target datalayout = "e-m:e-p270:32:32-p271:32:32-p272:64:64-i64:64-i128:128-f80:128-n8:16:32:64-S128"
target triple = "x86_64-unknown-linux-gnu"

%class.expr2polynomial = type { ptr, ptr }

@_ZTV15expr2polynomial = hidden unnamed_addr constant { [6 x ptr] } { [6 x ptr] [ptr null, ptr @_ZTI15expr2polynomial, ptr @_ZN15expr2polynomialD1Ev, ptr @_ZN15expr2polynomialD0Ev, ptr @_ZNK15expr2polynomial6is_intEj, ptr @_ZN15expr2polynomial6mk_varEb] }, align 8

; Function Attrs: mustprogress uwtable
define linkonce_odr hidden void @_Z7deallocIN15expr2polynomial3impEEvPT_(ptr noundef %ptr) #4 comdat {
entry:
  %ptr.addr = alloca ptr, align 8
  store ptr %ptr, ptr %ptr.addr, align 8
  %0 = load ptr, ptr %ptr.addr, align 8
  %cmp = icmp eq ptr %0, null
  br i1 %cmp, label %if.then, label %if.end

if.then:                                          ; preds = %entry
  br label %return

if.end:                                           ; preds = %entry
  %1 = load ptr, ptr %ptr.addr, align 8
  call void @_ZN15expr2polynomial3impD2Ev(ptr noundef nonnull align 8 dereferenceable(186) %1) #3
  %2 = load ptr, ptr %ptr.addr, align 8
  call void @_ZN6memory10deallocateEPv(ptr noundef %2)
  br label %return

return:                                           ; preds = %if.end, %if.then
  ret void
}

; Function Attrs: mustprogress nounwind uwtable
define hidden void @_ZN15expr2polynomialD2Ev(ptr noundef nonnull align 8 dereferenceable(16) %this) unnamed_addr #5 align 2 personality ptr @__gxx_personality_v0 {
entry:
  %this.addr = alloca ptr, align 8
  store ptr %this, ptr %this.addr, align 8
  %this1 = load ptr, ptr %this.addr, align 8
  store ptr getelementptr inbounds ({ [6 x ptr] }, ptr @_ZTV15expr2polynomial, i32 0, i32 0, i32 2), ptr %this1, align 8
  %m_imp = getelementptr inbounds %class.expr2polynomial, ptr %this1, i32 0, i32 1
  %0 = load ptr, ptr %m_imp, align 8
  invoke void @_Z7deallocIN15expr2polynomial3impEEvPT_(ptr noundef %0)
          to label %invoke.cont unwind label %terminate.lpad

invoke.cont:                                      ; preds = %entry
  ret void

terminate.lpad:                                   ; preds = %entry
  %1 = landingpad { ptr, i32 }
          catch ptr null
  %2 = extractvalue { ptr, i32 } %1, 0
  call void @__clang_call_terminate(ptr %2) #14
  unreachable
}